target datalayout = "e-m:e-p270:32:32-p271:32:32-p272:64:64-i64:64-i128:128-f80:128-n8:16:32:64-S128"
target triple = "x86_64-pc-linux-gnu"

; Function Attrs: nounwind sspstrong uwtable
define dso_local i64 @rb_reg_init_str(i64 noundef %0, i64 noundef %1, i32 noundef %2) #0 {
  %4 = alloca i64, align 8
  %5 = alloca i64, align 8
  %6 = alloca i32, align 4
  %7 = alloca [90 x i8], align 16
  store i64 %0, ptr %4, align 8, !tbaa !11
  store i64 %1, ptr %5, align 8, !tbaa !11
  store i32 %2, ptr %6, align 4, !tbaa !16
  call void @llvm.lifetime.start.p0(i64 90, ptr %7) #28
  call void @llvm.memset.p0.i64(ptr align 16 %7, i8 0, i64 90, i1 false)
  %8 = load i64, ptr %4, align 8, !tbaa !11
  %9 = load i64, ptr %5, align 8, !tbaa !11
  %10 = load i32, ptr %6, align 4, !tbaa !16
  %11 = getelementptr inbounds [90 x i8], ptr %7, i64 0, i64 0
  %12 = call i32 @rb_reg_initialize_str(i64 noundef %8, i64 noundef %9, i32 noundef %10, ptr noundef %11, ptr noundef null, i32 noundef 0)
  %13 = icmp ne i32 %12, 0
  br i1 %13, label %14, label %18

14:                                               ; preds = %3
  %15 = load i64, ptr %5, align 8, !tbaa !11
  %16 = load i32, ptr %6, align 4, !tbaa !16
  %17 = getelementptr inbounds [90 x i8], ptr %7, i64 0, i64 0
  call void @rb_reg_raise_str(i64 noundef %15, i32 noundef %16, ptr noundef %17) #30
  unreachable

18:                                               ; preds = %3
  %19 = load i64, ptr %4, align 8, !tbaa !11
  call void @llvm.lifetime.end.p0(i64 90, ptr %7) #28
  ret i64 %19
}