; Function Attrs: nounwind sspstrong uwtable
define dso_local noundef i64 @rb_reg_init_str(i64 noundef returned %0, i64 noundef %1, i32 noundef %2) local_unnamed_addr #2 {
  %4 = alloca [90 x i8], align 16
  call void @llvm.lifetime.start.p0(i64 90, ptr nonnull %4) #29
  call void @llvm.memset.p0.i64(ptr noundef nonnull align 16 dereferenceable(90) %4, i8 0, i64 90, i1 false)
  %5 = call fastcc i32 @rb_reg_initialize_str(i64 noundef %0, i64 noundef %1, i32 noundef %2, ptr noundef %4, ptr noundef null, i32 noundef 0)
  %.not = icmp eq i32 %5, 0
  br i1 %.not, label %7, label %6

6:                                                ; preds = %3
  call fastcc void @rb_reg_raise_str(i64 noundef %1, i32 noundef %2, ptr noundef %4) #31
  unreachable

7:                                                ; preds = %3
  call void @llvm.lifetime.end.p0(i64 90, ptr nonnull %4) #29
  ret i64 %0
}